(dp1
S'block_m'
p2
I25
sS'admm'
p3
F4.591015100479126
sS'objval'
p4
cnumpy.core.multiarray
scalar
p5
(cnumpy
dtype
p6
(S'f8'
I0
I1
tRp7
(I3
S'<'
NNNI-1
I-1
I0
tbS'"\x11\x9c\xdc\x0e"$\xc0'
tRp8
sS'block_n'
p9
I5
sS'ecos'
p10
F2.496104603
sS'iters'
p11
I92
sS'rel_err'
p12
g5
(g7
S'S\x96\x93TA\xf5\x8b?'
tRp13
sS'admm_objval'
p14
g5
(g7
S'\xd0U5\x06kh$\xc0'
tRp15
sS'prob'
p16
F0.095198794050919022
sS'N'
I256
s.