(dp1
S'block_m'
p2
I50
sS'admm'
p3
F4.6693038940429688
sS'objval'
p4
cnumpy.core.multiarray
scalar
p5
(cnumpy
dtype
p6
(S'f8'
I0
I1
tRp7
(I3
S'<'
NNNI-1
I-1
I0
tbS'\xb2\xba!W\xa0\x1fN@'
tRp8
sS'block_n'
p9
I10
sS'ecos'
p10
F14.331657617999999
sS'iters'
p11
I79
sS'rel_err'
p12
g5
(g7
S'\x88\xa2\x18\xa9\x85\xc2y?'
tRp13
sS'admm_objval'
p14
g5
(g7
S'B4|\xb1 \xefM@'
tRp15
sS'prob'
p16
F0.095171631499587961
sS'N'
I256
s.