(dp1
S'block_m'
p2
I500
sS'admm'
p3
F62.719671964645386
sS'objval'
p4
cnumpy.core.multiarray
scalar
p5
(cnumpy
dtype
p6
(S'f8'
I0
I1
tRp7
(I3
S'<'
NNNI-1
I-1
I0
tbS'\x91bx{y\xfc\xa2@'
tRp8
sS'block_n'
p9
I100
sS'ecos'
p10
F6024.7624242809998
sS'iters'
p11
I159
sS'rel_err'
p12
g5
(g7
S'\x05\xba\xa8\xd4\xb9\xbcL?'
tRp13
sS'admm_objval'
p14
g5
(g7
S'\x1e\x80\x82B6\xf8\xa2@'
tRp15
sS'prob'
p16
F0.095162672445477381
sS'N'
I256
s.