(dp1
S'block_m'
p2
I2500
sS'admm'
p3
F27194.059551000595
sS'objval'
p4
cnumpy.core.multiarray
scalar
p5
(cnumpy
dtype
p6
(S'f8'
I0
I1
tRp7
(I3
S'<'
NNNI-1
I-1
I0
tbS'9\xde_\x06"\xfa\xba@'
tRp8
sS'block_n'
p9
I500
sS'ecos'
p10
F927472.27822159196
sS'iters'
p11
I652
sS'rel_err'
p12
g5
(g7
S'\xae)b\xa2\xa7\xb41?'
tRp13
sS'admm_objval'
p14
g5
(g7
S'\x8c<\x93`D\xf8\xba@'
tRp15
sS'prob'
p16
F0.095162585535763622
sS'N'
I256
s.