(dp1
S'block_m'
p2
I250
sS'admm'
p3
F29.646142959594727
sS'objval'
p4
cnumpy.core.multiarray
scalar
p5
(cnumpy
dtype
p6
(S'f8'
I0
I1
tRp7
(I3
S'<'
NNNI-1
I-1
I0
tbS'>S\x06?\x02o\x85@'
tRp8
sS'block_n'
p9
I50
sS'ecos'
p10
F1531.032035988
sS'iters'
p11
I151
sS'rel_err'
p12
g5
(g7
S'c\xa1\xafh\x10\xb4h?'
tRp13
sS'admm_objval'
p14
g5
(g7
S'r\xcc\xecav^\x85@'
tRp15
sS'prob'
p16
F0.095162943900956032
sS'N'
I256
s.